(dp1
Vstones
p2
I618
sVcrumpled
p3
I1
sVchilds
p4
I2
sVforget
p5
I3
sVmilestonesand
p6
I4
sVsaver
p7
I5
sVallergy
p8
I6
sVmonth
p9
I9
sVfour
p10
I10
sVsofter
p11
I11
sVsleep
p12
I12
sVcomments
p13
I1021
sVhanging
p14
I14
sVgo
p15
I15
sVoldest
p16
I16
sVchildren
p17
I17
sVissues
p18
I18
sVseemed
p19
I19
sVsynthetic
p20
I20
sVcontent
p21
I428
sVfeeding
p22
I22
sVbuy
p23
I1108
sVeverything
p24
I1023
sVpeanut
p25
I153
sVyoung
p26
I25
sVpresents
p27
I26
sVfinally
p28
I27
sVbabysitter
p29
I861
sVhelps
p30
I29
sVth
p31
I30
sVteaching
p32
I31
sVarip
p33
I32
sVinclude
p34
I33
sVworth
p35
I34
sVactivities
p36
I36
sVlure
p37
I37
sVlack
p38
I38
sVreturned
p39
I39
sVreturning
p40
I40
sVfar
p41
I41
sVnone
p42
I8
sVsons
p43
I45
sVevery
p44
I46
sVadditional
p45
I1090
sVartwork
p46
I47
sVfab
p47
I48
sVaffect
p48
I49
sVdrinking
p49
I50
sVdifference
p50
I51
sVscreaming
p51
I52
sVwipe
p52
I53
sVexplanatory
p53
I937
sVentire
p54
I54
sVwent
p55
I1050
sVbasics
p56
I55
sVportability
p57
I56
sVmade
p58
I1128
sVbn
p59
I1035
sVgender
p60
I57
sVnotes
p61
I58
sVpacifiers
p62
I816
sVlist
p63
I60
sVprolonged
p64
I61
sVgrandfather
p65
I62
sVtry
p66
I63
sVitem
p67
I64
sVmile
p68
I65
sVsmall
p69
I68
sVbiological
p70
I69
sVhavent
p71
I70
sVheading
p72
I72
sVclothes
p73
I73
sVenjoy
p74
I74
sVclients
p75
I75
sVandor
p76
I76
sVquilt
p77
I77
sVtired
p78
I78
sVtrend
p79
I79
sVconsistent
p80
I80
sVpast
p81
I81
sVsecond
p82
I82
sVtitles
p83
I83
sVdesign
p84
I84
sVitbut
p85
I716
sVn
I820
sVbreastmilk
p86
I1030
sVaddition
p87
I1063
sVblue
p88
I92
sVpurchasers
p89
I101
sVappear
p90
I95
sVdaythree
p91
I96
sVpinterest
p92
I97
sVgiving
p93
I98
sVsun
p94
I99
sVsection
p95
I100
sVdisease
p96
I1158
sVwhay
p97
I102
sVcurrent
p98
I103
sVconsistently
p99
I104
sVversion
p100
I106
sVtwins
p101
I648
sVempty
p102
I1140
sVgoes
p103
I108
sVillustrations
p104
I110
sVnew
p105
I111
sVtips
p106
I112
sVrow
p107
I113
sVever
p108
I114
sVequivalent
p109
I43
sVmovement
p110
I116
sVmake
p111
I858
sVcompact
p112
I117
sVfull
p113
I118
sVchose
p114
I119
sVyoud
p115
I1074
sVnaptime
p116
I527
sVnever
p117
I121
sVdiapers
p118
I122
sVyoungest
p119
I71
sVreported
p120
I741
sVtracks
p121
I127
sVlet
p122
I128
sVnanny
p123
I129
sVothers
p124
I130
sVactive
p125
I131
sVlayout
p126
I637
sValong
p127
I133
sVcardboard
p128
I134
sVteaches
p129
I135
sVpacis
p130
I136
sVchange
p131
I137
sVsuggest
p132
I757
sVbox
p133
I138
sVpublisher
p134
I139
sVgreat
p135
I140
sVkids
p136
I141
sVdaughter
p137
I142
sVahead
p138
I143
sVcover
p139
I1153
sVdrank
p140
I1100
sVleaves
p141
I144
sVlarger
p142
I145
sVallows
p143
I146
sVfriendly
p144
I147
sVthumbuddy
p145
I148
sVabsorbency
p146
I149
sVamount
p147
I150
sVdiagnosed
p148
I152
sVnatures
p149
I755
sVopinion
p150
I154
sVnarrow
p151
I613
sVmakes
p152
I156
sVexplain
p153
I640
sVthats
p154
I158
sVfantastic
p155
I159
sVlove
p156
I160
sVfamily
p157
I161
sVextra
p158
I162
sVapp
p159
I163
sVexplained
p160
I164
sVstink
p161
I832
sVreplace
p162
I166
sVbrought
p163
I167
sVput
p164
I449
sVspecifics
p165
I169
sVtexture
p166
I643
sVdaughterinlaw
p167
I171
sVfeedings
p168
I172
sVprinter
p169
I1003
sVapply
p170
I173
sVglance
p171
I174
sVtotal
p172
I175
sVestablish
p173
I176
sVuse
p174
I179
sVtimesnotes
p175
I180
sVnapped
p176
I835
sVwould
p177
I181
sVlose
p178
I1036
sVpositive
p179
I182
sVhospital
p180
I183
sVpooped
p181
I184
sVvisit
p182
I185
sVtwo
p183
I186
sVtightly
p184
I187
sVnext
p185
I188
sVbacking
p186
I836
sVhandles
p187
I190
sVsitter
p188
I191
sVuserfriendly
p189
I192
sVwondering
p190
I193
sVrecommend
p191
I194
sVthru
p192
I195
sVtype
p193
I196
sVwipes
p194
I197
sVtoday
p195
I198
sVloving
p196
I199
sVsort
p197
I200
sVkidfriendly
p198
I201
sVclever
p199
I202
sVdentists
p200
I203
sVasterisks
p201
I204
sVporch
p202
I205
sVstarted
p203
I206
sVbecomes
p204
I207
sVdishwasher
p205
I453
sVaware
p206
I209
sVphone
p207
I210
sVhes
p208
I1162
sVmilestones
p209
I454
sVstick
p210
I213
sVexcellent
p211
I214
sVbaby
p212
I215
sVhole
p213
I217
sVhold
p214
I218
sVproducing
p215
I219
sVdocument
p216
I455
sVmust
p217
I221
sVkeeping
p218
I222
sVword
p219
I223
sVroom
p220
I224
sVhour
p221
I225
sVtrackers
p222
I226
sVoriginally
p223
I227
sVwork
p224
I228
sVentertained
p225
I229
sVcuddly
p226
I230
sVreviews
p227
I231
sVmovies
p228
I232
sVprompts
p229
I233
sVprinting
p230
I234
sVthin
p231
I235
sVlearn
p232
I236
sVgrowing
p233
I237
sVmaking
p234
I238
sVdidnt
p235
I239
sVexample
p236
I240
sVcontrol
p237
I242
sVimprotnat
p238
I244
sVpurchased
p239
I245
sVgive
p240
I246
sVprocess
p241
I247
sVorganized
p242
I249
sVintake
p243
I44
sVexpectant
p244
I251
sVhigh
p245
I252
sVpushed
p246
I253
sVway
p247
I1102
sVsomething
p248
I255
sVwant
p249
I256
sVallowed
p250
I257
sVreqd
p251
I258
sVhit
p252
I655
sVstandard
p253
I810
sVkeep
p254
I460
sVabsolute
p255
I261
sVinformation
p256
I262
sVneeds
p257
I263
sVend
p258
I264
sVthing
p259
I265
sVrather
p260
I266
sVstickers
p261
I848
sVdivided
p262
I268
sVsix
p263
I327
sVmilk
p264
I270
sVspreadsheet
p265
I271
sVarrangement
p266
I272
sVwrite
p267
I273
sVamazing
p268
I274
sVsomeimse
p269
I277
sVperfectlywould
p270
I278
sVanswer
p271
I279
sVinstead
p272
I280
sVtoddler
p273
I281
sVnonstop
p274
I282
sVstock
p275
I283
sVmap
p276
I284
sVproduct
p277
I285
sVshouldnt
p278
I286
sVblocks
p279
I287
sVtried
p280
I288
sVhuge
p281
I789
sVmay
p282
I291
sVwatch
p283
I623
sVearlier
p284
I294
sVspot
p285
I295
sVtreatments
p286
I296
sVnotebook
p287
I298
sVbrands
p288
I1190
sVlay
p289
I299
sVwater
p290
I736
sVfits
p291
I300
sVsuck
p292
I302
sVlaw
p293
I303
sVdata
p294
I304
sVexcited
p295
I947
sVpurchase
p296
I305
sVrealized
p297
I306
sVshort
p298
I307
sVnatural
p299
I308
sVremember
p300
I309
sVthird
p301
I310
sVfibers
p302
I856
sVlines
p303
I313
sVst
p304
I316
sVprovide
p305
I318
sVeating
p306
I1032
sVstayathome
p307
I319
sVallow
p308
I320
sVkeeps
p309
I588
sVwipesocean
p310
I322
sVdiary
p311
I323
sVorder
p312
I324
sVturns
p313
I846
sVcute
p314
I325
sVinfant
p315
I326
sVwohld
p316
I998
sVhelp
p317
I328
sVfood
p318
I860
sVdeveloped
p319
I329
sVargyle
p320
I330
sVincompleteinaccurate
p321
I331
sVmidnight
p322
I332
sVsoon
p323
I333
sVyears
p324
I335
sVplayful
p325
I336
sVended
p326
I337
sVisnt
p327
I338
sVpaper
p328
I339
sVlooks
p329
I340
sVstill
p330
I341
sVwiping
p331
I1116
sVcaregivers
p332
I343
sVperfect
p333
I344
sVstyle
p334
I345
sVpens
p335
I346
sVthank
p336
I347
sVfit
p337
I348
sVpersonal
p338
I349
sVlo
p339
I350
sVhot
p340
I352
sVwriting
p341
I334
sVbetter
p342
I354
sVcontinue
p343
I982
sVselection
p344
I1107
sVcovered
p345
I356
sVweeks
p346
I357
sVholiday
p347
I358
sVmight
p348
I359
sVeasier
p349
I360
sVhappened
p350
I362
sVversus
p351
I363
sVgood
p352
I364
sVreturn
p353
I365
sVsucking
p354
I366
sVlater
p355
I1149
sVbeautifullyillustrated
p356
I243
sVmoms
p357
I368
sVbought
p358
I721
sVbreak
p359
I371
sVlunch
p360
I372
sVbrand
p361
I1111
sVhands
p362
I374
sVfront
p363
I375
sVbinky
p364
I376
sVdownright
p365
I377
sVcomplain
p366
I241
sVbigger
p367
I379
sVinstructions
p368
I380
sVwont
p369
I381
sVeasily
p370
I382
sVsmiles
p371
I1181
sVseveral
p372
I439
sVcotton
p373
I1164
sVpregnant
p374
I384
sVcorners
p375
I123
sVpageswhat
p376
I386
sVloosely
p377
I387
sVnicely
p378
I673
sVsomeone
p379
I389
sVhabits
p380
I390
sVstopped
p381
I391
sVdaughters
p382
I392
sVhardback
p383
I393
sVrock
p384
I394
sVfound
p385
I395
sVfairy
p386
I396
sVdifficult
p387
I869
sVbutton
p388
I355
sVcommentsnotes
p389
I400
sVconceiving
p390
I401
sVeveryone
p391
I402
sVconstipation
p392
I403
sVweight
p393
I404
sVhouse
p394
I406
sVeg
p395
I407
sVbums
p396
I408
sVidea
p397
I409
sVsolution
p398
I410
sVused
p399
I872
sVexpect
p400
I412
sVfingertips
p401
I7
sVokay
p402
I414
sVgirl
p403
I415
sVavoided
p404
I416
sVevent
p405
I417
sVspecial
p406
I418
sVreally
p407
I419
sVexpectedfeel
p408
I420
sVspace
p409
I423
sVsince
p410
I425
sVwashed
p411
I426
sVresearch
p412
I427
sVlooking
p413
I21
sVseriously
p414
I429
sVundone
p415
I430
sVhealth
p416
I431
sVprint
p417
I432
sVgot
p418
I120
sVget
p419
I657
sVsquares
p420
I434
sVissue
p421
I435
sVhappenings
p422
I436
sVthingswe
p423
I437
sVroutine
p424
I715
sVpumping
p425
I124
sVquite
p426
I91
sVhappier
p427
I1194
sVquick
p428
I442
sVthatit
p429
I443
sVect
p430
I444
sVcomplicated
p431
I445
sVstruggle
p432
I446
sVbesides
p433
I447
sVgrandma
p434
I448
sVask
p435
I168
sVapproach
p436
I718
sVwanted
p437
I450
sVcard
p438
I451
sVappointments
p439
I808
sVtraining
p440
I208
sVate
p441
I212
sVrecord
p442
I1138
sVstarts
p443
I456
sVcould
p444
I457
sVtransition
p445
I458
sVdays
p446
I459
sVtimes
p447
I260
sVturn
p448
I85
sVpostits
p449
I275
sVexpecting
p450
I463
sVhusband
p451
I684
sVstickler
p452
I1094
sVuses
p453
I882
sVthink
p454
I467
sVfirst
p455
I468
sVmajor
p456
I469
sValready
p457
I470
sVdont
p458
I471
sVfeel
p459
I473
sVcrib
p460
I475
sVone
p461
I476
sVwash
p462
I477
sVpuppet
p463
I478
sVspots
p464
I479
sVcustomization
p465
I105
sVblank
p466
I481
sVthick
p467
I483
sVfirsts
p468
I421
sVquality
p469
I485
sVsummarize
p470
I486
sVsize
p471
I487
sVanyone
p472
I501
sVstory
p473
I440
sVtoy
p474
I490
sVsheet
p475
I491
sVreference
p476
I887
sVservice
p477
I493
sVstart
p478
I1099
sVordering
p479
I461
sVslept
p480
I496
sVgirls
p481
I497
sVleast
p482
I499
sVplastic
p483
I500
sVpinned
p484
I488
sVattach
p485
I502
sVwonderful
p486
I293
sVlisted
p487
I504
sVphotoscards
p488
I505
sVwrapped
p489
I506
sVsummarized
p490
I507
sVlol
p491
I1097
sVfriend
p492
I509
sVgives
p493
I510
sVhaves
p494
I511
sVoption
p495
I482
sVgrandchildren
p496
I513
sVhighly
p497
I969
sVtool
p498
I515
sVexactly
p499
I516
sVpark
p500
I517
sVtook
p501
I518
sVrequired
p502
I1198
sVpart
p503
I520
sVdate
p504
I791
sVpurposes
p505
I250
sVprobably
p506
I523
sVdetails
p507
I1175
sVholder
p508
I524
sVwhite
p509
I525
sVfred
p510
I441
sVloved
p511
I529
sVbabys
p512
I530
sVcommunicate
p513
I1037
sVdaycare
p514
I531
sVboring
p515
I532
sVrequire
p516
I533
sVtree
p517
I534
sVlikely
p518
I535
sVbed
p519
I536
sVrecording
p520
I537
sVtummy
p521
I538
sVappealing
p522
I539
sVprotected
p523
I540
sVsilly
p524
I541
sVglossy
p525
I542
sVloves
p526
I543
sVentries
p527
I545
sVfeeling
p528
I546
sVlegibility
p529
I547
sVnapsfeedingsdiaper
p530
I548
sVsupplement
p531
I474
sVnicer
p532
I550
sVwasnt
p533
I551
sVappreciate
p534
I552
sVhalf
p535
I913
sVpreprinted
p536
I495
sVcomfortable
p537
I555
sVformula
p538
I556
sVtalking
p539
I557
sVsay
p540
I558
sVlive
p541
I1096
sVchildcare
p542
I559
sVportrait
p543
I695
sVneed
p544
I561
sVlables
p545
I94
sVconfirms
p546
I563
sVorders
p547
I564
sVosocozy
p548
I565
sVsayings
p549
I566
sVdocuments
p550
I567
sVproviders
p551
I568
sVnobles
p552
I1033
sVcheck
p553
I1163
sVconvenient
p554
I569
sVself
p555
I570
sVable
p556
I571
sVaside
p557
I572
sVimagined
p558
I631
sVnote
p559
I574
sValso
p560
I575
sVideal
p561
I576
sVwithout
p562
I577
sVtake
p563
I578
sVfinding
p564
I579
sVwanting
p565
I580
sVbowel
p566
I581
sVeven
p567
I582
sVplay
p568
I583
sVsure
p569
I584
sVthough
p570
I585
sVthrilled
p571
I254
sVprice
p572
I587
sVmother
p573
I902
sVchart
p574
I589
sVaccurately
p575
I590
sVleave
p576
I817
sVuseful
p577
I921
sVregular
p578
I591
sVcharm
p579
I592
sVplan
p580
I593
sVeaten
p581
I594
sVgrandparents
p582
I596
sVpages
p583
I597
sVsecondyear
p584
I595
sVcause
p585
I600
sVespecially
p586
I601
sVboys
p587
I1115
sVmedical
p588
I603
sVproud
p589
I604
sVupset
p590
I605
sVsale
p591
I351
sVbreeze
p592
I900
sVlooked
p593
I607
sVheres
p594
I608
sVdefinitely
p595
I609
sVstoryline
p596
I610
sVplace
p597
I611
sVclean
p598
I612
sVleft
p599
I905
sVlooksfit
p600
I615
sVfact
p601
I616
sVfussy
p602
I761
sVshop
p603
I0
sVwalking
p604
I619
sVcurrently
p605
I707
sVweekly
p606
I996
sVnights
p607
I881
sVbookmark
p608
I622
sVwasted
p609
I522
sVcolors
p610
I624
sVspaces
p611
I625
sVtelling
p612
I627
sVnephew
p613
I86
sVrough
p614
I629
sVcheaply
p615
I630
sVfine
p616
I315
sVoverwhelmed
p617
I621
sVfeedback
p618
I633
sVcalenders
p619
I634
sVbusy
p620
I636
sVbased
p621
I132
sVtitle
p622
I639
sVmuch
p623
I786
sVwrites
p624
I157
sVbinkies
p625
I641
sVbehind
p626
I711
sVrash
p627
I170
sVheld
p628
I1160
sVprintouts
p629
I178
sVblack
p630
I645
sVspecify
p631
I526
sVpretty
p632
I646
sVconsent
p633
I647
sVadequate
p634
I220
sVlocal
p635
I650
sVcolumns
p636
I652
sVfinger
p637
I713
sVweve
p638
I654
sVhandle
p639
I259
sVcolorful
p640
I656
sVwatching
p641
I269
sVsooo
p642
I658
sVhorrible
p643
I659
sVdesignated
p644
I292
sVpreferred
p645
I661
sVcheaper
p646
I662
sVones
p647
I663
sVbreast
p648
I664
sVwords
p649
I665
sVcoordinating
p650
I93
sVtbe
p651
I667
sVnurse
p652
I668
sVareas
p653
I669
sVruns
p654
I670
sVcourse
p655
I373
sVcovering
p656
I672
sVmuchloved
p657
I674
sVmedicines
p658
I675
sVremove
p659
I676
sVmorning
p660
I677
sVbag
p661
I678
sVbad
p662
I679
sVactivity
p663
I680
sVx
I681
sVgrab
p664
I682
sVtold
p665
I361
sVwrote
p666
I464
sVview
p667
I685
sVknowing
p668
I722
sVfair
p669
I687
sVhabit
p670
I688
sVenjoyed
p671
I690
sVsee
p672
I691
sVdecided
p673
I692
sVdescriptions
p674
I693
sVjournalit
p675
I694
sVclose
p676
I560
sVcalendar
p677
I696
sVconnected
p678
I1068
sVtime
p679
I1203
sVbest
p680
I698
sVconcern
p681
I699
sVshower
p682
I700
sVusethe
p683
I702
sVmatter
p684
I703
sVlots
p685
I704
sVpictures
p686
I705
sVreview
p687
I521
sVstandarad
p688
I620
sVplease
p689
I708
sVformatted
p690
I709
sVgrandmother
p691
I710
sVoutside
p692
I642
sVfuture
p693
I712
sVcalendaring
p694
I653
sVhopefully
p695
I90
sVprogress
p696
I66
sVreading
p697
I717
sVyoull
p698
I462
sVacross
p699
I719
sVpictured
p700
I720
sVhandwritten
p701
I683
sVavailable
p702
I686
sVends
p703
I723
sVjot
p704
I724
sVability
p705
I725
sVparent
p706
I726
sVannouncement
p707
I928
sVscreen
p708
I728
sVdeliver
p709
I729
sVhowever
p710
I730
sVjob
p711
I731
sVkey
p712
I732
sVcome
p713
I733
sVthumb
p714
I734
sVsuggested
p715
I735
sVhours
p716
I125
sVtantrum
p717
I737
sVplanner
p718
I738
sVlast
p719
I739
sVhesitant
p720
I740
sVbrat
p721
I818
sVmany
p722
I742
sVill
p723
I743
sVjournallayout
p724
I744
sVagree
p725
I1145
sVetc
p726
I746
sVnewborns
p727
I749
sValot
p728
I750
sVinteresting
p729
I492
sVreply
p730
I666
sVwhole
p731
I753
sVnook
p732
I1022
sVcomes
p733
I754
sVcomment
p734
I756
sVingenious
p735
I549
sVliked
p736
I758
sVrelevant
p737
I759
sVflexibility
p738
I978
sVsupply
p739
I936
sVsimple
p740
I762
sVsweet
p741
I763
sVperiod
p742
I961
sVwhatever
p743
I766
sVheight
p744
I317
sVsatisfaction
p745
I519
sVtwin
p746
I689
sVamam
p747
I771
sVlikes
p748
I772
sVaway
p749
I706
sVordered
p750
I1150
sVactually
p751
I353
sVinhome
p752
I775
sVexpensive
p753
I776
sVheadaches
p754
I777
sVconsidering
p755
I778
sVconsuming
p756
I779
sVnaps
p757
I780
sVclip
p758
I781
sVmonthly
p759
I782
sVinformed
p760
I783
sVdue
p761
I405
sVquickly
p762
I785
sVdropping
p763
I701
sVcontained
p764
I714
sVexpected
p765
I788
sVwaste
p766
I301
sVwoke
p767
I792
sVpm
p768
I793
sVwants
p769
I794
sVlife
p770
I795
sVwish
p771
I1132
sVretrospect
p772
I796
sVreceived
p773
I797
sVpainted
p774
I798
sVgoing
p775
I644
sVoffered
p776
I799
sVgas
p777
I800
sVmine
p778
I553
sVphotos
p779
I424
sVunderstand
p780
I803
sVpediatricians
p781
I804
sVchild
p782
I805
sVworked
p783
I806
sVrepetition
p784
I88
sVurination
p785
I809
sVpresent
p786
I748
sVcase
p787
I812
sVlook
p788
I814
sVdocumenting
p789
I815
sVdeveloping
p790
I59
sVplain
p791
I67
sVnd
p792
I1171
sVsmile
p793
I819
sVchoices
p794
I89
sVsometimes
p795
I938
sVnear
p796
I822
sVsuppose
p797
I823
sVcrevices
p798
I868
sVfun
p799
I824
sVsituation
p800
I825
sVinstantly
p801
I826
sVfrustrating
p802
I827
sVtaking
p803
I828
sVloop
p804
I829
sVtheres
p805
I155
sVive
p806
I831
sVseven
p807
I165
sVpagewhat
p808
I833
sVgrovia
p809
I834
sVfind
p810
I632
sValmost
p811
I189
sVsticker
p812
I837
sVcompleted
p813
I838
sVsleeping
p814
I839
sVhelped
p815
I840
sVmiddle
p816
I821
sVcant
p817
I842
sVvs
p818
I24
sVim
p819
I844
sVcalender
p820
I845
sVbaths
p821
I248
sVrid
p822
I847
sVie
p823
I267
sVeveryday
p824
I849
sVworry
p825
I850
sVmovements
p826
I851
sVwhirl
p827
I290
sVdifferent
p828
I853
sVtimetummy
p829
I854
sVoldfashioned
p830
I855
sVdoctor
p831
I312
sVbarnes
p832
I321
sVgranted
p833
I811
sVreordered
p834
I367
sVclearly
p835
I859
sVbags
p836
I852
sVanother
p837
I480
sVpad
p838
I862
sVsplit
p839
I863
sVbabies
p840
I864
sVgets
p841
I383
sVevents
p842
I867
sVcramming
p843
I109
sVhigher
p844
I397
sVweek
p845
I870
sVnoble
p846
I871
sVfinish
p847
I411
sVween
p848
I873
sVsolved
p849
I874
sVfireman
p850
I875
sVcountwhich
p851
I877
sVfaces
p852
I751
sVstumbled
p853
I1166
sVkeps
p854
I890
sVaverage
p855
I879
sVrunning
p856
I880
sVdepict
p857
I752
sVarrived
p858
I466
sVpurpose
p859
I107
sVownership
p860
I884
sVchanging
p861
I885
sVkid
p862
I888
sVeasilylove
p863
I889
sVtracking
p864
I297
sVshortly
p865
I891
sVolder
p866
I892
sVchanges
p867
I893
sVyoure
p868
I894
sVwell
p869
I895
sVpersonalization
p870
I896
sVsmallconclusioni
p871
I747
sVthought
p872
I898
sVpatterns
p873
I899
sVbeatrice
p874
I1155
sVcontact
p875
I573
sVbottle
p876
I901
sVsets
p877
I311
sVloss
p878
I972
sVspend
p879
I903
sVdads
p880
I904
sVbabychild
p881
I614
sVbreastfeeding
p882
I906
sVthings
p883
I907
sVnannys
p884
I908
sVcried
p885
I909
sVless
p886
I910
sVmoments
p887
I911
sVboyfor
p888
I433
sVmilestone
p889
I638
sVbirthday
p890
I914
sVreviewed
p891
I915
sVseen
p892
I562
sVcries
p893
I916
sVshape
p894
I917
sVbooks
p895
I1139
sVthanks
p896
I918
sVquestions
p897
I919
sVounces
p898
I920
sVshorthand
p899
I472
sValternative
p900
I922
sVcaregiver
p901
I528
sVwouldve
p902
I924
sVcaptured
p903
I925
sVprevious
p904
I926
sVmove
p905
I927
sVadding
p906
I727
sVplastictype
p907
I930
sVplaytime
p908
I931
sVaheadi
p909
I932
sVmoist
p910
I933
sVthinking
p911
I934
sVease
p912
I935
sVdeprived
p913
I554
sVseems
p914
I626
sVday
p915
I378
sVadd
p916
I939
sVconcerns
p917
I940
sVparents
p918
I941
sVlocation
p919
I942
sVeasy
p920
I943
sVwet
p921
I944
sVreason
p922
I945
sVtell
p923
I1136
sVsave
p924
I813
sVpostpartum
p925
I342
sVgave
p926
I948
sVreal
p927
I949
sVcomplaint
p928
I950
sVarent
p929
I951
sVphoto
p930
I952
sVaround
p931
I953
sVemergency
p932
I954
sVformat
p933
I955
sVread
p934
I956
sVbig
p935
I865
sVfuss
p936
I958
sVcalendars
p937
I959
sVfridge
p938
I960
sVearly
p939
I962
sVboxes
p940
I963
sVknow
p941
I964
sVbirth
p942
I370
sVschedules
p943
I966
sVusing
p944
I967
sVbit
p945
I968
sVwalk
p946
I767
sVdisappointed
p947
I970
sVflannel
p948
I946
sVdiaper
p949
I1117
sVnewborn
p950
I768
sVjots
p951
I973
sVgraphics
p952
I974
sVmemory
p953
I1112
sVlike
p954
I975
sVlost
p955
I314
sVdaycarenannycaregiver
p956
I977
sVpiece
p957
I1143
sVinexplicably
p958
I769
sVserves
p959
I979
sVtheyre
p960
I980
sVremind
p961
I981
sVsoothies
p962
I649
sVindication
p963
I983
sVeither
p964
I984
sValways
p965
I385
sVrarely
p966
I1012
sVbecome
p967
I986
sVworks
p968
I987
sVsoft
p969
I988
sVessential
p970
I989
sVnames
p971
I990
sVmom
p972
I965
sVright
p973
I991
sVold
p974
I992
sVoften
p975
I993
sVdeal
p976
I994
sVdoll
p977
I995
sVhumorous
p978
I484
sVbackgrounds
p979
I997
sVpacifier
p980
I773
sVback
p981
I999
sVtransaction
p982
I1000
sVborn
p983
I1001
sVtrends
p984
I1002
sVpack
p985
I830
sVwarmer
p986
I1004
sVshes
p987
I1005
sVparagraphs
p988
I1006
sVid
p989
I1007
sVhome
p990
I1008
sVlittle
p991
I489
sVsufficient
p992
I1178
sVnaturally
p993
I1106
sVhappens
p994
I1010
sVprovided
p995
I1011
sVthroughout
p996
I774
sVperverse
p997
I1013
sVvimse
p998
I1014
sVbottom
p999
I1015
sVmemories
p1000
I42
sVavoid
p1001
I1017
sVrecorded
p1002
I1019
sVfilling
p1003
I1020
sVper
p1004
I13
sVtotals
p1005
I764
sVtrack
p1006
I586
sVpen
p1007
I1024
sVtracker
p1008
I28
sVprovides
p1009
I1026
sVadorable
p1010
I1027
sVdrink
p1011
I878
sVrefer
p1012
I1028
sVlimitations
p1013
I1029
sVformfactor
p1014
I886
sVknew
p1015
I1031
sVrun
p1016
I87
sVvintage
p1017
I857
sVwake
p1018
I1204
sVschedule
p1019
I1034
sVproblems
p1020
I1184
sVjournal
p1021
I115
sVnight
p1022
I985
sVcontinuing
p1023
I422
sVfed
p1024
I1038
sVpeed
p1025
I1039
sVclearer
p1026
I1040
sVoverall
p1027
I1041
sVdiscount
p1028
I1042
sVfeeds
p1029
I1043
sVphew
p1030
I1044
sValthough
p1031
I1045
sVoutput
p1032
I1046
sVlosing
p1033
I1047
sVprepared
p1034
I760
sVsuper
p1035
I1049
sVthrow
p1036
I216
sVconstrains
p1037
I1051
sVjournaling
p1038
I1052
sVusingthirsties
p1039
I1053
sVok
p1040
I1054
sVworking
p1041
I1055
sVanything
p1042
I1056
sVgetting
p1043
I1057
sVcolumn
p1044
I1058
sVscrapbooks
p1045
I1059
sVmonths
p1046
I1060
sVfavorite
p1047
I1061
sVside
p1048
I399
sVtoddlers
p1049
I770
sVhired
p1050
I1064
sVplus
p1051
I1065
sVafternoon
p1052
I126
sVdone
p1053
I635
sVimprovement
p1054
I438
sVbook
p1055
I1174
sVblock
p1056
I1069
sVcontains
p1057
I1070
sVsheets
p1058
I1071
sVdoesnt
p1059
I1080
sVcaretaker
p1060
I1072
sVmommy
p1061
I1073
sVskilled
p1062
I398
sVbound
p1063
I1075
sVsoo
p1064
I1076
sVthree
p1065
I784
sVstop
p1066
I660
sVincluded
p1067
I1078
sVappropriate
p1068
I1079
sVaccomplishments
p1069
I544
sVdetermine
p1070
I1081
sVwrap
p1071
I1082
sVimmunizations
p1072
I1083
sVcouldnt
p1073
I1084
sVmark
p1074
I1085
sVbends
p1075
I1086
sVimpressed
p1076
I1087
sVbumgenius
p1077
I1088
sVfast
p1078
I1089
sVfill
p1079
I866
sVlog
p1080
I452
sVprepare
p1081
I1091
sVarea
p1082
I1092
sVunisex
p1083
I1093
sVtransfer
p1084
I465
sVsupport
p1085
I1095
sVgift
p1086
I976
sVlong
p1087
I211
sVspitup
p1088
I1098
sVintention
p1089
I494
sVtylenol
p1090
I841
sVenticed
p1091
I503
sVlullabies
p1092
I1101
sVlot
p1093
I512
sVsuit
p1094
I1103
sVdaily
p1095
I1199
sVcall
p1096
I1104
sVoldermy
p1097
I598
sVsections
p1098
I1105
sVhappy
p1099
I514
sVcleaning
p1100
I883
sVhard
p1101
I957
sVlarge
p1102
I628
sVform
p1103
I1109
sVenough
p1104
I1110
sVbecoming
p1105
I151
sVeitherthe
p1106
I1009
sVpleased
p1107
I1113
sVsearching
p1108
I1114
sVcloth
p1109
I602
sVneutral
p1110
I606
sVgoals
p1111
I617
sVproductmy
p1112
I1118
sVpotato
p1113
I1196
sVhopes
p1114
I1119
sVhelpful
p1115
I1186
sVline
p1116
I1121
sVtrying
p1117
I1122
sVeat
p1118
I1123
sVbuying
p1119
I1124
sVinfo
p1120
I1125
sVpull
p1121
I1126
sVrush
p1122
I1127
sVlovely
p1123
I790
sVwise
p1124
I1129
sVplaces
p1125
I671
sVwhether
p1126
I1131
sVpmpm
p1127
I276
sVinside
p1128
I1133
sVwife
p1129
I1134
sVus
p1130
I1135
sVur
p1131
I697
sVplanet
p1132
I1137
sVplaced
p1133
I35
sVpediatrician
p1134
I1066
sVcritical
p1135
I1025
sVspacefor
p1136
I1141
sVproblem
p1137
I1142
sVdaddy
p1138
I1018
sVsimilar
p1139
I1144
sVcalled
p1140
I745
sVcare
p1141
I1146
sVconnect
p1142
I1147
sVgone
p1143
I1148
sVgather
p1144
I929
sVmoney
p1145
I912
sVinkjet
p1146
I1151
sVnurses
p1147
I1152
sVcertain
p1148
I787
sVdivorced
p1149
I1154
sVyear
p1150
I413
sVmoved
p1151
I1156
sVcovers
p1152
I1157
sVgeneral
p1153
I807
sVsingle
p1154
I1159
sVevening
p1155
I843
sVtogether
p1156
I1161
sVdoor
p1157
I498
sVhappen
p1158
I1130
sVnursed
p1159
I388
sVreocording
p1160
I1165
sVoptions
p1161
I897
sVboy
p1162
I1167
sVentirely
p1163
I1168
sVvariety
p1164
I1169
sVwhereas
p1165
I1170
sVboot
p1166
I508
sVtight
p1167
I1172
sVnap
p1168
I1173
sVinterested
p1169
I651
sVson
p1170
I1077
sVsick
p1171
I1176
sVoverly
p1172
I1177
sVpage
p1173
I1062
sVshrink
p1174
I369
sVnice
p1175
I1179
sVpoor
p1176
I1180
sVpicture
p1177
I599
sVtraumatic
p1178
I1182
sVolds
p1179
I923
sVteeth
p1180
I1183
sVforgot
p1181
I765
sVvisits
p1182
I1185
sVincludes
p1183
I289
sVneighbor
p1184
I1067
sVchance
p1185
I1187
sVimportant
p1186
I1188
sVshrank
p1187
I1189
sVpouch
p1188
I23
sVoncall
p1189
I1191
sVelse
p1190
I801
sVfriends
p1191
I1192
sVyounger
p1192
I1193
sVmindlessly
p1193
I1120
sVlonger
p1194
I1195
sVcalendarschedule
p1195
I802
sVplenty
p1196
I1197
sVwets
p1197
I177
sVstay
p1198
I1048
sVcohesion
p1199
I1200
sVstripping
p1200
I1201
sVcame
p1201
I1202
sVapart
p1202
I971
sVleak
p1203
I1016
sVpriceiis
p1204
I876
sVdehydrated
p1205
I1205
sVstarting
p1206
I1206
s.